target datalayout = "e-m:e-p270:32:32-p271:32:32-p272:64:64-i64:64-i128:128-f80:128-n8:16:32:64-S128"
target triple = "x86_64-pc-linux-gnu"

%class.ptr_vector = type { %class.vector }
%class.vector = type { ptr }
%"struct.mbp::term_graph::add_deq_proc" = type { i32 }
%"class.mbp::term" = type { %class.obj_ref, ptr, ptr, ptr, i16, %class.ptr_vector, %class.ptr_vector, %"struct.mbp::term::class_props" }
%class.obj_ref = type { ptr, ptr }
%"struct.mbp::term::class_props" = type { i8, i32, %class.bit_vector }
%class.bit_vector = type { i32, i32, ptr }

; Function Attrs: mustprogress nounwind uwtable
define linkonce_odr hidden noundef nonnull align 4 dereferenceable(4) ptr @_ZN10bit_vector12get_bit_wordEj(ptr noundef nonnull align 8 dereferenceable(16) %0, i32 noundef %1) #6 comdat align 2 {
  %3 = alloca ptr, align 8
  %4 = alloca i32, align 4
  store ptr %0, ptr %3, align 8, !tbaa !25
  store i32 %1, ptr %4, align 4, !tbaa !27
  %5 = load ptr, ptr %3, align 8
  %6 = getelementptr inbounds nuw %class.bit_vector, ptr %5, i32 0, i32 2
  %7 = load ptr, ptr %6, align 8, !tbaa !424
  %8 = load i32, ptr %4, align 4, !tbaa !27
  %9 = udiv i32 %8, 32
  %10 = zext i32 %9 to i64
  %11 = getelementptr inbounds nuw i32, ptr %7, i64 %10
  ret ptr %11
}

; Function Attrs: mustprogress nounwind uwtable
define linkonce_odr hidden noundef i32 @_ZN10bit_vector12get_pos_maskEj(i32 noundef %0) #6 comdat align 2 {
  %2 = alloca i32, align 4
  store i32 %0, ptr %2, align 4, !tbaa !27
  %3 = load i32, ptr %2, align 4, !tbaa !27
  %4 = urem i32 %3, 32
  %5 = shl i32 1, %4
  ret i32 %5
}

; Function Attrs: mustprogress uwtable
define linkonce_odr hidden void @_ZN10bit_vector3setEj(ptr noundef nonnull align 8 dereferenceable(16) %0, i32 noundef %1) #4 comdat align 2 {
  %3 = alloca ptr, align 8
  %4 = alloca i32, align 4
  store ptr %0, ptr %3, align 8, !tbaa !25
  store i32 %1, ptr %4, align 4, !tbaa !27
  %5 = load ptr, ptr %3, align 8
  %6 = load i32, ptr %4, align 4, !tbaa !27
  %7 = call noundef i32 @_ZN10bit_vector12get_pos_maskEj(i32 noundef %6)
  %8 = load i32, ptr %4, align 4, !tbaa !27
  %9 = call noundef nonnull align 4 dereferenceable(4) ptr @_ZN10bit_vector12get_bit_wordEj(ptr noundef nonnull align 8 dereferenceable(16) %5, i32 noundef %8)
  %10 = load i32, ptr %9, align 4, !tbaa !27
  %11 = or i32 %10, %7
  store i32 %11, ptr %9, align 4, !tbaa !27
  ret void
}

; Function Attrs: mustprogress uwtable
define linkonce_odr hidden void @_ZN3mbp4term7set_deqER10bit_vectorj(ptr noundef nonnull align 8 dereferenceable(16) %0, i32 noundef %1) #4 comdat align 2 {
  %3 = alloca ptr, align 8
  %4 = alloca i32, align 4
  store ptr %0, ptr %3, align 8, !tbaa !25
  store i32 %1, ptr %4, align 4, !tbaa !27
  %5 = load ptr, ptr %3, align 8, !tbaa !25
  %6 = load i32, ptr %4, align 4, !tbaa !27
  %7 = add i32 %6, 1
  call void @_ZN10bit_vector6resizeEjb(ptr noundef nonnull align 8 dereferenceable(16) %5, i32 noundef %7, i1 noundef zeroext false)
  %8 = load ptr, ptr %3, align 8, !tbaa !25
  %9 = load i32, ptr %4, align 4, !tbaa !27
  call void @_ZN10bit_vector3setEj(ptr noundef nonnull align 8 dereferenceable(16) %8, i32 noundef %9)
  ret void
}

; Function Attrs: mustprogress nounwind uwtable
define linkonce_odr hidden noundef nonnull align 8 dereferenceable(16) ptr @_ZN3mbp4term8get_deqsEv(ptr noundef nonnull align 8 dereferenceable(88) %0) #6 comdat align 2 {
  %2 = alloca ptr, align 8
  store ptr %0, ptr %2, align 8, !tbaa !20
  %3 = load ptr, ptr %2, align 8
  %4 = getelementptr inbounds nuw %"class.mbp::term", ptr %3, i32 0, i32 7
  %5 = getelementptr inbounds nuw %"struct.mbp::term::class_props", ptr %4, i32 0, i32 2
  ret ptr %5
}

; Function Attrs: mustprogress nounwind uwtable
define linkonce_odr hidden noundef nonnull align 8 dereferenceable(88) ptr @_ZNK3mbp4term8get_rootEv(ptr noundef nonnull align 8 dereferenceable(88) %0) #6 comdat align 2 {
  %2 = alloca ptr, align 8
  store ptr %0, ptr %2, align 8, !tbaa !20
  %3 = load ptr, ptr %2, align 8
  %4 = getelementptr inbounds nuw %"class.mbp::term", ptr %3, i32 0, i32 1
  %5 = load ptr, ptr %4, align 8, !tbaa !28
  ret ptr %5
}

; Function Attrs: mustprogress uwtable
define hidden void @_ZN3mbp10term_graph12add_deq_procclEPNS_4termES3_(ptr noundef nonnull align 4 dereferenceable(4) %0, ptr noundef %1, ptr noundef %2) #4 align 2 {
  %4 = alloca ptr, align 8
  %5 = alloca ptr, align 8
  %6 = alloca ptr, align 8
  store ptr %0, ptr %4, align 8, !tbaa !18
  store ptr %1, ptr %5, align 8, !tbaa !20
  store ptr %2, ptr %6, align 8, !tbaa !20
  %7 = load ptr, ptr %4, align 8
  %8 = load ptr, ptr %5, align 8, !tbaa !20
  %9 = call noundef nonnull align 8 dereferenceable(88) ptr @_ZNK3mbp4term8get_rootEv(ptr noundef nonnull align 8 dereferenceable(88) %8)
  %10 = call noundef nonnull align 8 dereferenceable(16) ptr @_ZN3mbp4term8get_deqsEv(ptr noundef nonnull align 8 dereferenceable(88) %9)
  %11 = getelementptr inbounds nuw %"struct.mbp::term_graph::add_deq_proc", ptr %7, i32 0, i32 0
  %12 = load i32, ptr %11, align 4, !tbaa !22
  call void @_ZN3mbp4term7set_deqER10bit_vectorj(ptr noundef nonnull align 8 dereferenceable(16) %10, i32 noundef %12)
  %13 = load ptr, ptr %6, align 8, !tbaa !20
  %14 = call noundef nonnull align 8 dereferenceable(88) ptr @_ZNK3mbp4term8get_rootEv(ptr noundef nonnull align 8 dereferenceable(88) %13)
  %15 = call noundef nonnull align 8 dereferenceable(16) ptr @_ZN3mbp4term8get_deqsEv(ptr noundef nonnull align 8 dereferenceable(88) %14)
  %16 = getelementptr inbounds nuw %"struct.mbp::term_graph::add_deq_proc", ptr %7, i32 0, i32 0
  %17 = load i32, ptr %16, align 4, !tbaa !22
  call void @_ZN3mbp4term7set_deqER10bit_vectorj(ptr noundef nonnull align 8 dereferenceable(16) %15, i32 noundef %17)
  call void @_ZN3mbp10term_graph12add_deq_proc9inc_countEv(ptr noundef nonnull align 4 dereferenceable(4) %7)
  ret void
}