; Function Attrs: mustprogress uwtable
define hidden void @_ZN3mbp10term_graph12add_deq_procclEPNS_4termES3_(ptr noundef nonnull align 4 captures(none) dereferenceable(4) %0, ptr noundef readonly captures(none) %1, ptr noundef readonly captures(none) %2) local_unnamed_addr #3 align 2 {
  %4 = getelementptr inbounds nuw i8, ptr %1, i64 16
  %5 = load ptr, ptr %4, align 8, !tbaa !19
  %6 = getelementptr inbounds nuw i8, ptr %5, i64 72
  %7 = load i32, ptr %0, align 4, !tbaa !31
  %8 = add i32 %7, 1
  tail call void @_ZN10bit_vector6resizeEjb(ptr noundef nonnull align 8 dereferenceable(16) %6, i32 noundef %8, i1 noundef zeroext false)
  %9 = and i32 %7, 31
  %10 = shl nuw i32 1, %9
  %11 = getelementptr inbounds nuw i8, ptr %5, i64 80
  %12 = load ptr, ptr %11, align 8, !tbaa !33
  %13 = lshr i32 %7, 5
  %14 = zext nneg i32 %13 to i64
  %15 = getelementptr inbounds nuw i32, ptr %12, i64 %14
  %16 = load i32, ptr %15, align 4, !tbaa !34
  %17 = or i32 %16, %10
  store i32 %17, ptr %15, align 4, !tbaa !34
  %18 = getelementptr inbounds nuw i8, ptr %2, i64 16
  %19 = load ptr, ptr %18, align 8, !tbaa !19
  %20 = getelementptr inbounds nuw i8, ptr %19, i64 72
  %21 = load i32, ptr %0, align 4, !tbaa !31
  %22 = add i32 %21, 1
  tail call void @_ZN10bit_vector6resizeEjb(ptr noundef nonnull align 8 dereferenceable(16) %20, i32 noundef %22, i1 noundef zeroext false)
  %23 = and i32 %21, 31
  %24 = shl nuw i32 1, %23
  %25 = getelementptr inbounds nuw i8, ptr %19, i64 80
  %26 = load ptr, ptr %25, align 8, !tbaa !33
  %27 = lshr i32 %21, 5
  %28 = zext nneg i32 %27 to i64
  %29 = getelementptr inbounds nuw i32, ptr %26, i64 %28
  %30 = load i32, ptr %29, align 4, !tbaa !34
  %31 = or i32 %30, %24
  store i32 %31, ptr %29, align 4, !tbaa !34
  tail call void @_ZN3mbp10term_graph12add_deq_proc9inc_countEv(ptr noundef nonnull align 4 dereferenceable(4) %0)
  ret void
}